; Function Attrs: mustprogress ssp uwtable
define void @_ZNK6open3d1t8geometry19OrientedBoundingBox11GetMinBoundEv(ptr dead_on_unwind noalias writable sret(%"class.open3d::core::Tensor") align 8 %0, ptr noundef nonnull align 8 dereferenceable(928) %1) local_unnamed_addr #1 align 2 personality ptr @__gxx_personality_v0 {
  %3 = alloca %"class.open3d::core::Tensor", align 8
  %4 = alloca %"class.open3d::core::SizeVector", align 8
  %5 = alloca %"class.std::initializer_list.64", align 8
  %6 = alloca [1 x i64], align 8
  call void @llvm.lifetime.start.p0(i64 160, ptr nonnull %3) #34
  call void @_ZNK6open3d1t8geometry19OrientedBoundingBox12GetBoxPointsEv(ptr dead_on_unwind nonnull writable sret(%"class.open3d::core::Tensor") align 8 %3, ptr noundef nonnull align 8 dereferenceable(928) %1)
  call void @llvm.lifetime.start.p0(i64 48, ptr nonnull %4) #34
  call void @llvm.lifetime.start.p0(i64 16, ptr nonnull %5) #34
  call void @llvm.lifetime.start.p0(i64 8, ptr nonnull %6) #34
  store i64 0, ptr %6, align 8, !tbaa !27
  store ptr %6, ptr %5, align 8, !tbaa !28
  %7 = getelementptr inbounds nuw i8, ptr %5, i64 8
  store i64 1, ptr %7, align 8, !tbaa !31
  invoke void @_ZN6open3d4core10SizeVectorC1ERKSt16initializer_listIlE(ptr noundef nonnull align 8 dereferenceable(48) %4, ptr noundef nonnull align 8 dereferenceable(16) %5)
          to label %8 unwind label %47

8:                                                ; preds = %2
  invoke void @_ZNK6open3d4core6Tensor3MinERKNS0_10SizeVectorEb(ptr dead_on_unwind writable sret(%"class.open3d::core::Tensor") align 8 %0, ptr noundef nonnull align 8 dereferenceable(160) %3, ptr noundef nonnull align 8 dereferenceable(48) %4, i1 noundef zeroext false)
          to label %9 unwind label %49

9:                                                ; preds = %8
  %10 = load ptr, ptr %4, align 8, !tbaa !19
  %11 = getelementptr inbounds nuw i8, ptr %4, i64 16
  %12 = icmp eq ptr %10, %11
  br i1 %12, label %_ZN6open3d4core11SmallVectorIlLj4EED2Ev.exit, label %13

13:                                               ; preds = %9
  call void @free(ptr noundef %10) #34
  br label %_ZN6open3d4core11SmallVectorIlLj4EED2Ev.exit

_ZN6open3d4core11SmallVectorIlLj4EED2Ev.exit:     ; preds = %9, %13
  call void @llvm.lifetime.end.p0(i64 8, ptr nonnull %6) #34
  call void @llvm.lifetime.end.p0(i64 16, ptr nonnull %5) #34
  call void @llvm.lifetime.end.p0(i64 48, ptr nonnull %4) #34
  store ptr getelementptr inbounds nuw inrange(-16, 24) (i8, ptr @_ZTVN6open3d4core6TensorE, i64 16), ptr %3, align 8, !tbaa !4
  %14 = getelementptr inbounds nuw i8, ptr %3, i64 152
  %15 = load ptr, ptr %14, align 8, !tbaa !7
  %.not.i.i.i = icmp eq ptr %15, null
  br i1 %.not.i.i.i, label %_ZNSt12__shared_ptrIN6open3d4core4BlobELN9__gnu_cxx12_Lock_policyE2EED2Ev.exit.i, label %16

16:                                               ; preds = %_ZN6open3d4core11SmallVectorIlLj4EED2Ev.exit
  %17 = getelementptr inbounds nuw i8, ptr %15, i64 8
  %18 = load atomic i64, ptr %17 acquire, align 8
  %19 = icmp eq i64 %18, 4294967297
  %20 = trunc i64 %18 to i32
  br i1 %19, label %21, label %29

21:                                               ; preds = %16
  store i32 0, ptr %17, align 8, !tbaa !12
  %22 = getelementptr inbounds nuw i8, ptr %15, i64 12
  store i32 0, ptr %22, align 4, !tbaa !15
  %23 = load ptr, ptr %15, align 8, !tbaa !4
  %24 = getelementptr inbounds nuw i8, ptr %23, i64 16
  %25 = load ptr, ptr %24, align 8
  call void %25(ptr noundef nonnull align 8 dereferenceable(16) %15) #34
  %26 = load ptr, ptr %15, align 8, !tbaa !4
  %27 = getelementptr inbounds nuw i8, ptr %26, i64 24
  %28 = load ptr, ptr %27, align 8
  call void %28(ptr noundef nonnull align 8 dereferenceable(16) %15) #34
  br label %_ZNSt12__shared_ptrIN6open3d4core4BlobELN9__gnu_cxx12_Lock_policyE2EED2Ev.exit.i

29:                                               ; preds = %16
  %30 = load i8, ptr @__libc_single_threaded, align 1, !tbaa !16
  %.not.i.i.i.i = icmp eq i8 %30, 0
  br i1 %.not.i.i.i.i, label %33, label %31

31:                                               ; preds = %29
  %32 = add nsw i32 %20, -1
  store i32 %32, ptr %17, align 4, !tbaa !17
  br label %_ZN9__gnu_cxx27__exchange_and_add_dispatchEPii.exit.i.i.i.i

33:                                               ; preds = %29
  %34 = atomicrmw volatile add ptr %17, i32 -1 acq_rel, align 4
  br label %_ZN9__gnu_cxx27__exchange_and_add_dispatchEPii.exit.i.i.i.i

_ZN9__gnu_cxx27__exchange_and_add_dispatchEPii.exit.i.i.i.i: ; preds = %33, %31
  %.0.i.i.i.i.i = phi i32 [ %20, %31 ], [ %34, %33 ]
  %35 = icmp eq i32 %.0.i.i.i.i.i, 1
  br i1 %35, label %36, label %_ZNSt12__shared_ptrIN6open3d4core4BlobELN9__gnu_cxx12_Lock_policyE2EED2Ev.exit.i, !prof !18

36:                                               ; preds = %_ZN9__gnu_cxx27__exchange_and_add_dispatchEPii.exit.i.i.i.i
  call void @_ZNSt16_Sp_counted_baseILN9__gnu_cxx12_Lock_policyE2EE24_M_release_last_use_coldEv(ptr noundef nonnull align 8 dereferenceable(16) %15) #34
  br label %_ZNSt12__shared_ptrIN6open3d4core4BlobELN9__gnu_cxx12_Lock_policyE2EED2Ev.exit.i

_ZNSt12__shared_ptrIN6open3d4core4BlobELN9__gnu_cxx12_Lock_policyE2EED2Ev.exit.i: ; preds = %36, %_ZN9__gnu_cxx27__exchange_and_add_dispatchEPii.exit.i.i.i.i, %21, %_ZN6open3d4core11SmallVectorIlLj4EED2Ev.exit
  %37 = getelementptr inbounds nuw i8, ptr %3, i64 56
  %38 = load ptr, ptr %37, align 8, !tbaa !19
  %39 = getelementptr inbounds nuw i8, ptr %3, i64 72
  %40 = icmp eq ptr %38, %39
  br i1 %40, label %_ZN6open3d4core11SmallVectorIlLj4EED2Ev.exit.i, label %41

41:                                               ; preds = %_ZNSt12__shared_ptrIN6open3d4core4BlobELN9__gnu_cxx12_Lock_policyE2EED2Ev.exit.i
  call void @free(ptr noundef %38) #34
  br label %_ZN6open3d4core11SmallVectorIlLj4EED2Ev.exit.i

_ZN6open3d4core11SmallVectorIlLj4EED2Ev.exit.i:   ; preds = %41, %_ZNSt12__shared_ptrIN6open3d4core4BlobELN9__gnu_cxx12_Lock_policyE2EED2Ev.exit.i
  %42 = getelementptr inbounds nuw i8, ptr %3, i64 8
  %43 = load ptr, ptr %42, align 8, !tbaa !19
  %44 = getelementptr inbounds nuw i8, ptr %3, i64 24
  %45 = icmp eq ptr %43, %44
  br i1 %45, label %_ZN6open3d4core6TensorD2Ev.exit, label %46

46:                                               ; preds = %_ZN6open3d4core11SmallVectorIlLj4EED2Ev.exit.i
  call void @free(ptr noundef %43) #34
  br label %_ZN6open3d4core6TensorD2Ev.exit

_ZN6open3d4core6TensorD2Ev.exit:                  ; preds = %_ZN6open3d4core11SmallVectorIlLj4EED2Ev.exit.i, %46
  call void @llvm.lifetime.end.p0(i64 160, ptr nonnull %3) #34
  ret void

47:                                               ; preds = %2
  %48 = landingpad { ptr, i32 }
          cleanup
  br label %_ZN6open3d4core11SmallVectorIlLj4EED2Ev.exit4

49:                                               ; preds = %8
  %50 = landingpad { ptr, i32 }
          cleanup
  %51 = load ptr, ptr %4, align 8, !tbaa !19
  %52 = getelementptr inbounds nuw i8, ptr %4, i64 16
  %53 = icmp eq ptr %51, %52
  br i1 %53, label %_ZN6open3d4core11SmallVectorIlLj4EED2Ev.exit4, label %54

54:                                               ; preds = %49
  call void @free(ptr noundef %51) #34
  br label %_ZN6open3d4core11SmallVectorIlLj4EED2Ev.exit4

_ZN6open3d4core11SmallVectorIlLj4EED2Ev.exit4:    ; preds = %54, %49, %47
  %.pn = phi { ptr, i32 } [ %48, %47 ], [ %50, %49 ], [ %50, %54 ]
  call void @llvm.lifetime.end.p0(i64 8, ptr nonnull %6) #34
  call void @llvm.lifetime.end.p0(i64 16, ptr nonnull %5) #34
  call void @llvm.lifetime.end.p0(i64 48, ptr nonnull %4) #34
  call void @_ZN6open3d4core6TensorD2Ev(ptr noundef nonnull align 8 dereferenceable(160) %3) #34
  call void @llvm.lifetime.end.p0(i64 160, ptr nonnull %3) #34
  resume { ptr, i32 } %.pn
}